target datalayout = "e-m:e-p270:32:32-p271:32:32-p272:64:64-i64:64-i128:128-f80:128-n8:16:32:64-S128"
target triple = "x86_64-unknown-linux-gnu"

%struct.VirtIODevice = type { %struct.DeviceState, ptr, i8, i8, i16, i64, i64, i64, i64, ptr, i16, i32, i32, ptr, %struct.MemoryListener, i16, i8, i8, i8, i8, i8, i8, i8, i8, i8, ptr, ptr, i8, i8, ptr, ptr, %union.anon.1, %struct.EventNotifier, i8 }
%struct.DeviceState = type { %struct.Object, ptr, ptr, i8, i8, i64, ptr, i32, i8, ptr, %struct.NamedGPIOListHead, %struct.NamedClockListHead, %struct.BusStateHead, i32, i32, i32, %struct.ResettableState, ptr, %struct.MemReentrancyGuard }
%struct.Object = type { ptr, ptr, ptr, i32, ptr }
%struct.NamedGPIOListHead = type { ptr }
%struct.NamedClockListHead = type { ptr }
%struct.BusStateHead = type { ptr }
%struct.ResettableState = type { i32, i8, i8 }
%struct.MemReentrancyGuard = type { i8 }
%struct.MemoryListener = type { ptr, ptr, ptr, ptr, ptr, ptr, ptr, ptr, ptr, ptr, ptr, ptr, ptr, ptr, ptr, ptr, ptr, i32, ptr, ptr, %union.anon, %union.anon.0 }
%union.anon = type { %struct.QTailQLink }
%struct.QTailQLink = type { ptr, ptr }
%union.anon.0 = type { %struct.QTailQLink }
%union.anon.1 = type { %struct.QTailQLink }
%struct.EventNotifier = type { i32, i32, i8 }
%struct.VirtQueueElement = type { i32, i32, i32, i32, i32, ptr, ptr, ptr, ptr }
%struct.iovec = type { ptr, i64 }
%struct.VirtQueueElementOld = type { i32, i32, i32, [1024 x i64], [1024 x i64], [1024 x %struct.iovec], [1024 x %struct.iovec] }

@.str.42 = private unnamed_addr constant [27 x i8] c"../qemu/hw/virtio/virtio.c\00", align 1
@.str.44 = private unnamed_addr constant [40 x i8] c"ARRAY_SIZE(data.in_addr) >= data.in_num\00", align 1
@__PRETTY_FUNCTION__.qemu_get_virtqueue_element = private unnamed_addr constant [69 x i8] c"void *qemu_get_virtqueue_element(VirtIODevice *, QEMUFile *, size_t)\00", align 1
@.str.45 = private unnamed_addr constant [42 x i8] c"ARRAY_SIZE(data.out_addr) >= data.out_num\00", align 1
@.str.64 = private unnamed_addr constant [10 x i8] c"fbit < 64\00", align 1
@.str.65 = private unnamed_addr constant [105 x i8] c"/home/dtcxzyw/WorkSpace/Projects/compilers/llvm-opt-benchmark/bench/qemu/qemu/include/hw/virtio/virtio.h\00", align 1
@__PRETTY_FUNCTION__.virtio_has_feature = private unnamed_addr constant [49 x i8] c"_Bool virtio_has_feature(uint64_t, unsigned int)\00", align 1

; Function Attrs: nounwind sspstrong uwtable
define internal zeroext i1 @virtio_has_feature(i64 noundef %features, i32 noundef %fbit) #0 {
entry:
  %features.addr = alloca i64, align 8
  %fbit.addr = alloca i32, align 4
  store i64 %features, ptr %features.addr, align 8
  store i32 %fbit, ptr %fbit.addr, align 4
  %0 = load i32, ptr %fbit.addr, align 4
  %cmp = icmp ult i32 %0, 64
  br i1 %cmp, label %if.then, label %if.else

if.then:                                          ; preds = %entry
  br label %if.end

if.else:                                          ; preds = %entry
  call void @__assert_fail(ptr noundef @.str.64, ptr noundef @.str.65, i32 noundef 422, ptr noundef @__PRETTY_FUNCTION__.virtio_has_feature) #13
  unreachable

if.end:                                           ; preds = %if.then
  %1 = load i64, ptr %features.addr, align 8
  %2 = load i32, ptr %fbit.addr, align 4
  %sh_prom = zext i32 %2 to i64
  %shl = shl i64 1, %sh_prom
  %and = and i64 %1, %shl
  %tobool = icmp ne i64 %and, 0
  %lnot = xor i1 %tobool, true
  %lnot1 = xor i1 %lnot, true
  ret i1 %lnot1
}

; Function Attrs: nounwind sspstrong uwtable
define internal void @qemu_get_be32s(ptr noundef %f, ptr noundef %pv) #0 {
entry:
  %f.addr = alloca ptr, align 8
  %pv.addr = alloca ptr, align 8
  store ptr %f, ptr %f.addr, align 8
  store ptr %pv, ptr %pv.addr, align 8
  %0 = load ptr, ptr %f.addr, align 8
  %call = call i32 @qemu_get_be32(ptr noundef %0)
  %1 = load ptr, ptr %pv.addr, align 8
  store i32 %call, ptr %1, align 4
  ret void
}

; Function Attrs: nounwind sspstrong uwtable
define internal zeroext i1 @virtio_host_has_feature(ptr noundef %vdev, i32 noundef %fbit) #0 {
entry:
  %vdev.addr = alloca ptr, align 8
  %fbit.addr = alloca i32, align 4
  store ptr %vdev, ptr %vdev.addr, align 8
  store i32 %fbit, ptr %fbit.addr, align 4
  %0 = load ptr, ptr %vdev.addr, align 8
  %host_features = getelementptr inbounds %struct.VirtIODevice, ptr %0, i32 0, i32 5
  %1 = load i64, ptr %host_features, align 8
  %2 = load i32, ptr %fbit.addr, align 4
  %call = call zeroext i1 @virtio_has_feature(i64 noundef %1, i32 noundef %2)
  ret i1 %call
}

; Function Attrs: nounwind sspstrong uwtable
define dso_local ptr @qemu_get_virtqueue_element(ptr noundef %vdev, ptr noundef %f, i64 noundef %sz) #0 {
entry:
  %vdev.addr = alloca ptr, align 8
  %f.addr = alloca ptr, align 8
  %sz.addr = alloca i64, align 8
  %elem = alloca ptr, align 8
  %data = alloca %struct.VirtQueueElementOld, align 8
  %i = alloca i32, align 4
  store ptr %vdev, ptr %vdev.addr, align 8
  store ptr %f, ptr %f.addr, align 8
  store i64 %sz, ptr %sz.addr, align 8
  %0 = load ptr, ptr %f.addr, align 8
  %call = call i64 @qemu_get_buffer(ptr noundef %0, ptr noundef %data, i64 noundef 49168)
  %in_num = getelementptr inbounds %struct.VirtQueueElementOld, ptr %data, i32 0, i32 2
  %1 = load i32, ptr %in_num, align 8
  %conv = zext i32 %1 to i64
  %cmp = icmp uge i64 1024, %conv
  br i1 %cmp, label %if.then, label %if.else

if.then:                                          ; preds = %entry
  br label %if.end

if.else:                                          ; preds = %entry
  call void @__assert_fail(ptr noundef @.str.44, ptr noundef @.str.42, i32 noundef 1919, ptr noundef @__PRETTY_FUNCTION__.qemu_get_virtqueue_element) #13
  unreachable

if.end:                                           ; preds = %if.then
  %out_num = getelementptr inbounds %struct.VirtQueueElementOld, ptr %data, i32 0, i32 1
  %2 = load i32, ptr %out_num, align 4
  %conv2 = zext i32 %2 to i64
  %cmp3 = icmp uge i64 1024, %conv2
  br i1 %cmp3, label %if.then5, label %if.else6

if.then5:                                         ; preds = %if.end
  br label %if.end7

if.else6:                                         ; preds = %if.end
  call void @__assert_fail(ptr noundef @.str.45, ptr noundef @.str.42, i32 noundef 1920, ptr noundef @__PRETTY_FUNCTION__.qemu_get_virtqueue_element) #13
  unreachable

if.end7:                                          ; preds = %if.then5
  %3 = load i64, ptr %sz.addr, align 8
  %out_num8 = getelementptr inbounds %struct.VirtQueueElementOld, ptr %data, i32 0, i32 1
  %4 = load i32, ptr %out_num8, align 4
  %in_num9 = getelementptr inbounds %struct.VirtQueueElementOld, ptr %data, i32 0, i32 2
  %5 = load i32, ptr %in_num9, align 8
  %call10 = call ptr @virtqueue_alloc_element(i64 noundef %3, i32 noundef %4, i32 noundef %5)
  store ptr %call10, ptr %elem, align 8
  %index = getelementptr inbounds %struct.VirtQueueElementOld, ptr %data, i32 0, i32 0
  %6 = load i32, ptr %index, align 8
  %7 = load ptr, ptr %elem, align 8
  %index11 = getelementptr inbounds %struct.VirtQueueElement, ptr %7, i32 0, i32 0
  store i32 %6, ptr %index11, align 8
  store i32 0, ptr %i, align 4
  br label %for.cond

for.cond:                                         ; preds = %for.inc, %if.end7
  %8 = load i32, ptr %i, align 4
  %9 = load ptr, ptr %elem, align 8
  %in_num12 = getelementptr inbounds %struct.VirtQueueElement, ptr %9, i32 0, i32 4
  %10 = load i32, ptr %in_num12, align 8
  %cmp13 = icmp ult i32 %8, %10
  br i1 %cmp13, label %for.body, label %for.end

for.body:                                         ; preds = %for.cond
  %in_addr = getelementptr inbounds %struct.VirtQueueElementOld, ptr %data, i32 0, i32 3
  %11 = load i32, ptr %i, align 4
  %idxprom = sext i32 %11 to i64
  %arrayidx = getelementptr [1024 x i64], ptr %in_addr, i64 0, i64 %idxprom
  %12 = load i64, ptr %arrayidx, align 8
  %13 = load ptr, ptr %elem, align 8
  %in_addr15 = getelementptr inbounds %struct.VirtQueueElement, ptr %13, i32 0, i32 5
  %14 = load ptr, ptr %in_addr15, align 8
  %15 = load i32, ptr %i, align 4
  %idxprom16 = sext i32 %15 to i64
  %arrayidx17 = getelementptr i64, ptr %14, i64 %idxprom16
  store i64 %12, ptr %arrayidx17, align 8
  br label %for.inc

for.inc:                                          ; preds = %for.body
  %16 = load i32, ptr %i, align 4
  %inc = add i32 %16, 1
  store i32 %inc, ptr %i, align 4
  br label %for.cond, !llvm.loop !29

for.end:                                          ; preds = %for.cond
  store i32 0, ptr %i, align 4
  br label %for.cond18

for.cond18:                                       ; preds = %for.inc28, %for.end
  %17 = load i32, ptr %i, align 4
  %18 = load ptr, ptr %elem, align 8
  %out_num19 = getelementptr inbounds %struct.VirtQueueElement, ptr %18, i32 0, i32 3
  %19 = load i32, ptr %out_num19, align 4
  %cmp20 = icmp ult i32 %17, %19
  br i1 %cmp20, label %for.body22, label %for.end30

for.body22:                                       ; preds = %for.cond18
  %out_addr = getelementptr inbounds %struct.VirtQueueElementOld, ptr %data, i32 0, i32 4
  %20 = load i32, ptr %i, align 4
  %idxprom23 = sext i32 %20 to i64
  %arrayidx24 = getelementptr [1024 x i64], ptr %out_addr, i64 0, i64 %idxprom23
  %21 = load i64, ptr %arrayidx24, align 8
  %22 = load ptr, ptr %elem, align 8
  %out_addr25 = getelementptr inbounds %struct.VirtQueueElement, ptr %22, i32 0, i32 6
  %23 = load ptr, ptr %out_addr25, align 8
  %24 = load i32, ptr %i, align 4
  %idxprom26 = sext i32 %24 to i64
  %arrayidx27 = getelementptr i64, ptr %23, i64 %idxprom26
  store i64 %21, ptr %arrayidx27, align 8
  br label %for.inc28

for.inc28:                                        ; preds = %for.body22
  %25 = load i32, ptr %i, align 4
  %inc29 = add i32 %25, 1
  store i32 %inc29, ptr %i, align 4
  br label %for.cond18, !llvm.loop !30

for.end30:                                        ; preds = %for.cond18
  store i32 0, ptr %i, align 4
  br label %for.cond31

for.cond31:                                       ; preds = %for.inc45, %for.end30
  %26 = load i32, ptr %i, align 4
  %27 = load ptr, ptr %elem, align 8
  %in_num32 = getelementptr inbounds %struct.VirtQueueElement, ptr %27, i32 0, i32 4
  %28 = load i32, ptr %in_num32, align 8
  %cmp33 = icmp ult i32 %26, %28
  br i1 %cmp33, label %for.body35, label %for.end47

for.body35:                                       ; preds = %for.cond31
  %29 = load ptr, ptr %elem, align 8
  %in_sg = getelementptr inbounds %struct.VirtQueueElement, ptr %29, i32 0, i32 7
  %30 = load ptr, ptr %in_sg, align 8
  %31 = load i32, ptr %i, align 4
  %idxprom36 = sext i32 %31 to i64
  %arrayidx37 = getelementptr %struct.iovec, ptr %30, i64 %idxprom36
  %iov_base = getelementptr inbounds %struct.iovec, ptr %arrayidx37, i32 0, i32 0
  store ptr null, ptr %iov_base, align 8
  %in_sg38 = getelementptr inbounds %struct.VirtQueueElementOld, ptr %data, i32 0, i32 5
  %32 = load i32, ptr %i, align 4
  %idxprom39 = sext i32 %32 to i64
  %arrayidx40 = getelementptr [1024 x %struct.iovec], ptr %in_sg38, i64 0, i64 %idxprom39
  %iov_len = getelementptr inbounds %struct.iovec, ptr %arrayidx40, i32 0, i32 1
  %33 = load i64, ptr %iov_len, align 8
  %34 = load ptr, ptr %elem, align 8
  %in_sg41 = getelementptr inbounds %struct.VirtQueueElement, ptr %34, i32 0, i32 7
  %35 = load ptr, ptr %in_sg41, align 8
  %36 = load i32, ptr %i, align 4
  %idxprom42 = sext i32 %36 to i64
  %arrayidx43 = getelementptr %struct.iovec, ptr %35, i64 %idxprom42
  %iov_len44 = getelementptr inbounds %struct.iovec, ptr %arrayidx43, i32 0, i32 1
  store i64 %33, ptr %iov_len44, align 8
  br label %for.inc45

for.inc45:                                        ; preds = %for.body35
  %37 = load i32, ptr %i, align 4
  %inc46 = add i32 %37, 1
  store i32 %inc46, ptr %i, align 4
  br label %for.cond31, !llvm.loop !31

for.end47:                                        ; preds = %for.cond31
  store i32 0, ptr %i, align 4
  br label %for.cond48

for.cond48:                                       ; preds = %for.inc64, %for.end47
  %38 = load i32, ptr %i, align 4
  %39 = load ptr, ptr %elem, align 8
  %out_num49 = getelementptr inbounds %struct.VirtQueueElement, ptr %39, i32 0, i32 3
  %40 = load i32, ptr %out_num49, align 4
  %cmp50 = icmp ult i32 %38, %40
  br i1 %cmp50, label %for.body52, label %for.end66

for.body52:                                       ; preds = %for.cond48
  %41 = load ptr, ptr %elem, align 8
  %out_sg = getelementptr inbounds %struct.VirtQueueElement, ptr %41, i32 0, i32 8
  %42 = load ptr, ptr %out_sg, align 8
  %43 = load i32, ptr %i, align 4
  %idxprom53 = sext i32 %43 to i64
  %arrayidx54 = getelementptr %struct.iovec, ptr %42, i64 %idxprom53
  %iov_base55 = getelementptr inbounds %struct.iovec, ptr %arrayidx54, i32 0, i32 0
  store ptr null, ptr %iov_base55, align 8
  %out_sg56 = getelementptr inbounds %struct.VirtQueueElementOld, ptr %data, i32 0, i32 6
  %44 = load i32, ptr %i, align 4
  %idxprom57 = sext i32 %44 to i64
  %arrayidx58 = getelementptr [1024 x %struct.iovec], ptr %out_sg56, i64 0, i64 %idxprom57
  %iov_len59 = getelementptr inbounds %struct.iovec, ptr %arrayidx58, i32 0, i32 1
  %45 = load i64, ptr %iov_len59, align 8
  %46 = load ptr, ptr %elem, align 8
  %out_sg60 = getelementptr inbounds %struct.VirtQueueElement, ptr %46, i32 0, i32 8
  %47 = load ptr, ptr %out_sg60, align 8
  %48 = load i32, ptr %i, align 4
  %idxprom61 = sext i32 %48 to i64
  %arrayidx62 = getelementptr %struct.iovec, ptr %47, i64 %idxprom61
  %iov_len63 = getelementptr inbounds %struct.iovec, ptr %arrayidx62, i32 0, i32 1
  store i64 %45, ptr %iov_len63, align 8
  br label %for.inc64

for.inc64:                                        ; preds = %for.body52
  %49 = load i32, ptr %i, align 4
  %inc65 = add i32 %49, 1
  store i32 %inc65, ptr %i, align 4
  br label %for.cond48, !llvm.loop !32

for.end66:                                        ; preds = %for.cond48
  %50 = load ptr, ptr %vdev.addr, align 8
  %call67 = call zeroext i1 @virtio_host_has_feature(ptr noundef %50, i32 noundef 34)
  br i1 %call67, label %if.then68, label %if.end69

if.then68:                                        ; preds = %for.end66
  %51 = load ptr, ptr %f.addr, align 8
  %52 = load ptr, ptr %elem, align 8
  %ndescs = getelementptr inbounds %struct.VirtQueueElement, ptr %52, i32 0, i32 2
  call void @qemu_get_be32s(ptr noundef %51, ptr noundef %ndescs)
  br label %if.end69

if.end69:                                         ; preds = %if.then68, %for.end66
  %53 = load ptr, ptr %vdev.addr, align 8
  %54 = load ptr, ptr %elem, align 8
  call void @virtqueue_map(ptr noundef %53, ptr noundef %54)
  %55 = load ptr, ptr %elem, align 8
  ret ptr %55
}