; Function Attrs: nounwind sspstrong uwtable
define dso_local noundef ptr @qemu_get_virtqueue_element(ptr noundef readonly captures(none) %vdev, ptr noundef %f, i64 noundef %sz) local_unnamed_addr #0 {
entry:
  %data = alloca %struct.VirtQueueElementOld, align 8
  %call = call i64 @qemu_get_buffer(ptr noundef %f, ptr noundef nonnull %data, i64 noundef 49168) #23
  %in_num = getelementptr inbounds nuw i8, ptr %data, i64 8
  %0 = load i32, ptr %in_num, align 8
  %cmp = icmp ult i32 %0, 1025
  br i1 %cmp, label %if.end, label %if.else

if.else:                                          ; preds = %entry
  call void @__assert_fail(ptr noundef nonnull @.str.44, ptr noundef nonnull @.str.42, i32 noundef 1919, ptr noundef nonnull @__PRETTY_FUNCTION__.qemu_get_virtqueue_element) #24
  unreachable

if.end:                                           ; preds = %entry
  %out_num = getelementptr inbounds nuw i8, ptr %data, i64 4
  %1 = load i32, ptr %out_num, align 4
  %cmp3 = icmp ult i32 %1, 1025
  br i1 %cmp3, label %if.end7, label %if.else6

if.else6:                                         ; preds = %if.end
  call void @__assert_fail(ptr noundef nonnull @.str.45, ptr noundef nonnull @.str.42, i32 noundef 1920, ptr noundef nonnull @__PRETTY_FUNCTION__.qemu_get_virtqueue_element) #24
  unreachable

if.end7:                                          ; preds = %if.end
  %call10 = call fastcc ptr @virtqueue_alloc_element(i64 noundef %sz, i32 noundef %1, i32 noundef %0)
  %2 = load i32, ptr %data, align 8
  store i32 %2, ptr %call10, align 8
  %in_num12 = getelementptr inbounds nuw i8, ptr %call10, i64 16
  %3 = load i32, ptr %in_num12, align 8
  %cmp1333.not = icmp eq i32 %3, 0
  br i1 %cmp1333.not, label %for.cond18.preheader, label %for.body.lr.ph

for.body.lr.ph:                                   ; preds = %if.end7
  %in_addr = getelementptr inbounds nuw i8, ptr %data, i64 16
  %in_addr15 = getelementptr inbounds nuw i8, ptr %call10, i64 24
  br label %for.body

for.cond18.preheader:                             ; preds = %for.body, %if.end7
  %4 = phi i32 [ 0, %if.end7 ], [ %8, %for.body ]
  %out_num19 = getelementptr inbounds nuw i8, ptr %call10, i64 12
  %5 = load i32, ptr %out_num19, align 4
  %cmp2035.not = icmp eq i32 %5, 0
  br i1 %cmp2035.not, label %for.cond31.preheader, label %for.body22.lr.ph

for.body22.lr.ph:                                 ; preds = %for.cond18.preheader
  %out_addr = getelementptr inbounds nuw i8, ptr %data, i64 8208
  %out_addr25 = getelementptr inbounds nuw i8, ptr %call10, i64 32
  br label %for.body22

for.body:                                         ; preds = %for.body.lr.ph, %for.body
  %i.034 = phi i32 [ 0, %for.body.lr.ph ], [ %inc, %for.body ]
  %idxprom = sext i32 %i.034 to i64
  %arrayidx = getelementptr [1024 x i64], ptr %in_addr, i64 0, i64 %idxprom
  %6 = load i64, ptr %arrayidx, align 8
  %7 = load ptr, ptr %in_addr15, align 8
  %arrayidx17 = getelementptr i64, ptr %7, i64 %idxprom
  store i64 %6, ptr %arrayidx17, align 8
  %inc = add nuw i32 %i.034, 1
  %8 = load i32, ptr %in_num12, align 8
  %cmp13 = icmp ult i32 %inc, %8
  br i1 %cmp13, label %for.body, label %for.cond18.preheader, !llvm.loop !32

for.cond31.preheader.loopexit:                    ; preds = %for.body22
  %.pre = load i32, ptr %in_num12, align 8
  br label %for.cond31.preheader

for.cond31.preheader:                             ; preds = %for.cond31.preheader.loopexit, %for.cond18.preheader
  %9 = phi i32 [ %14, %for.cond31.preheader.loopexit ], [ 0, %for.cond18.preheader ]
  %10 = phi i32 [ %.pre, %for.cond31.preheader.loopexit ], [ %4, %for.cond18.preheader ]
  %cmp3337.not = icmp eq i32 %10, 0
  br i1 %cmp3337.not, label %for.cond48.preheader, label %for.body35.lr.ph

for.body35.lr.ph:                                 ; preds = %for.cond31.preheader
  %in_sg = getelementptr inbounds nuw i8, ptr %call10, i64 40
  %11 = getelementptr inbounds nuw i8, ptr %data, i64 16408
  br label %for.body35

for.body22:                                       ; preds = %for.body22.lr.ph, %for.body22
  %i.136 = phi i32 [ 0, %for.body22.lr.ph ], [ %inc29, %for.body22 ]
  %idxprom23 = sext i32 %i.136 to i64
  %arrayidx24 = getelementptr [1024 x i64], ptr %out_addr, i64 0, i64 %idxprom23
  %12 = load i64, ptr %arrayidx24, align 8
  %13 = load ptr, ptr %out_addr25, align 8
  %arrayidx27 = getelementptr i64, ptr %13, i64 %idxprom23
  store i64 %12, ptr %arrayidx27, align 8
  %inc29 = add nuw i32 %i.136, 1
  %14 = load i32, ptr %out_num19, align 4
  %cmp20 = icmp ult i32 %inc29, %14
  br i1 %cmp20, label %for.body22, label %for.cond31.preheader.loopexit, !llvm.loop !33

for.cond48.preheader.loopexit:                    ; preds = %for.body35
  %.pre41 = load i32, ptr %out_num19, align 4
  br label %for.cond48.preheader

for.cond48.preheader:                             ; preds = %for.cond48.preheader.loopexit, %for.cond31.preheader
  %15 = phi i32 [ %.pre41, %for.cond48.preheader.loopexit ], [ %9, %for.cond31.preheader ]
  %cmp5039.not = icmp eq i32 %15, 0
  br i1 %cmp5039.not, label %for.end66, label %for.body52.lr.ph

for.body52.lr.ph:                                 ; preds = %for.cond48.preheader
  %out_sg = getelementptr inbounds nuw i8, ptr %call10, i64 48
  %16 = getelementptr inbounds nuw i8, ptr %data, i64 32792
  br label %for.body52

for.body35:                                       ; preds = %for.body35.lr.ph, %for.body35
  %i.238 = phi i32 [ 0, %for.body35.lr.ph ], [ %inc46, %for.body35 ]
  %17 = load ptr, ptr %in_sg, align 8
  %idxprom36 = sext i32 %i.238 to i64
  %arrayidx37 = getelementptr %struct.iovec, ptr %17, i64 %idxprom36
  store ptr null, ptr %arrayidx37, align 8
  %iov_len.idx = shl nsw i64 %idxprom36, 4
  %iov_len = getelementptr i8, ptr %11, i64 %iov_len.idx
  %18 = load i64, ptr %iov_len, align 8
  %19 = load ptr, ptr %in_sg, align 8
  %iov_len44 = getelementptr %struct.iovec, ptr %19, i64 %idxprom36, i32 1
  store i64 %18, ptr %iov_len44, align 8
  %inc46 = add nuw i32 %i.238, 1
  %20 = load i32, ptr %in_num12, align 8
  %cmp33 = icmp ult i32 %inc46, %20
  br i1 %cmp33, label %for.body35, label %for.cond48.preheader.loopexit, !llvm.loop !34

for.body52:                                       ; preds = %for.body52.lr.ph, %for.body52
  %i.340 = phi i32 [ 0, %for.body52.lr.ph ], [ %inc65, %for.body52 ]
  %21 = load ptr, ptr %out_sg, align 8
  %idxprom53 = sext i32 %i.340 to i64
  %arrayidx54 = getelementptr %struct.iovec, ptr %21, i64 %idxprom53
  store ptr null, ptr %arrayidx54, align 8
  %iov_len59.idx = shl nsw i64 %idxprom53, 4
  %iov_len59 = getelementptr i8, ptr %16, i64 %iov_len59.idx
  %22 = load i64, ptr %iov_len59, align 8
  %23 = load ptr, ptr %out_sg, align 8
  %iov_len63 = getelementptr %struct.iovec, ptr %23, i64 %idxprom53, i32 1
  store i64 %22, ptr %iov_len63, align 8
  %inc65 = add nuw i32 %i.340, 1
  %24 = load i32, ptr %out_num19, align 4
  %cmp50 = icmp ult i32 %inc65, %24
  br i1 %cmp50, label %for.body52, label %for.end66, !llvm.loop !35

for.end66:                                        ; preds = %for.body52, %for.cond48.preheader
  %25 = getelementptr i8, ptr %vdev, i64 176
  %vdev.val = load i64, ptr %25, align 8
  %and.i.i = and i64 %vdev.val, 17179869184
  %tobool.i.i.not = icmp eq i64 %and.i.i, 0
  br i1 %tobool.i.i.not, label %if.end69, label %if.then68

if.then68:                                        ; preds = %for.end66
  %ndescs = getelementptr inbounds nuw i8, ptr %call10, i64 8
  %call.i = call i32 @qemu_get_be32(ptr noundef %f) #23
  store i32 %call.i, ptr %ndescs, align 4
  br label %if.end69

if.end69:                                         ; preds = %if.then68, %for.end66
  call void @virtqueue_map(ptr noundef nonnull %vdev, ptr noundef nonnull %call10)
  ret ptr %call10
}